target datalayout = "e-m:e-p270:32:32-p271:32:32-p272:64:64-i64:64-i128:128-f80:128-n8:16:32:64-S128"
target triple = "x86_64-pc-linux-gnu"

@.str = private unnamed_addr constant [18 x i8] c"/proc/self/status\00", align 1
@.str.1 = private unnamed_addr constant [11 x i8] c"TracerPid:\00", align 1
@.str.2 = private unnamed_addr constant [13 x i8] c"/proc/%d/exe\00", align 1
@.str.3 = private unnamed_addr constant [4 x i8] c"gdb\00", align 1

; Function Attrs: nounwind uwtable
define hidden zeroext i1 @ir_gdb_present() #0 {
  %1 = alloca i8, align 1
  %2 = alloca i32, align 4
  %3 = alloca [1024 x i8], align 16
  %4 = alloca i64, align 8
  %5 = alloca ptr, align 8
  %6 = alloca i32, align 4
  %7 = alloca [1024 x i8], align 16
  store i8 0, ptr %1, align 1
  %8 = call i32 (ptr, i32, ...) @open(ptr noundef @.str, i32 noundef 0)
  store i32 %8, ptr %2, align 4
  %9 = load i32, ptr %2, align 4
  %10 = icmp sgt i32 %9, 0
  br i1 %10, label %11, label %67

11:                                               ; preds = %0
  %12 = load i32, ptr %2, align 4
  %13 = getelementptr inbounds [1024 x i8], ptr %3, i64 0, i64 0
  %14 = call i64 @read(i32 noundef %12, ptr noundef %13, i64 noundef 1023)
  store i64 %14, ptr %4, align 8
  %15 = load i64, ptr %4, align 8
  %16 = icmp sgt i64 %15, 0
  br i1 %16, label %17, label %64

17:                                               ; preds = %11
  %18 = load i64, ptr %4, align 8
  %19 = getelementptr inbounds [1024 x i8], ptr %3, i64 0, i64 %18
  store i8 0, ptr %19, align 1
  %20 = getelementptr inbounds [1024 x i8], ptr %3, i64 0, i64 0
  %21 = call ptr @strstr(ptr noundef %20, ptr noundef @.str.1) #8
  store ptr %21, ptr %5, align 8
  %22 = load ptr, ptr %5, align 8
  %23 = icmp ne ptr %22, null
  br i1 %23, label %24, label %63

24:                                               ; preds = %17
  %25 = load ptr, ptr %5, align 8
  %26 = getelementptr inbounds i8, ptr %25, i64 10
  store ptr %26, ptr %5, align 8
  br label %27

27:                                               ; preds = %39, %24
  %28 = load ptr, ptr %5, align 8
  %29 = load i8, ptr %28, align 1
  %30 = sext i8 %29 to i32
  %31 = icmp eq i32 %30, 32
  br i1 %31, label %37, label %32

32:                                               ; preds = %27
  %33 = load ptr, ptr %5, align 8
  %34 = load i8, ptr %33, align 1
  %35 = sext i8 %34 to i32
  %36 = icmp eq i32 %35, 9
  br label %37

37:                                               ; preds = %32, %27
  %38 = phi i1 [ true, %27 ], [ %36, %32 ]
  br i1 %38, label %39, label %42

39:                                               ; preds = %37
  %40 = load ptr, ptr %5, align 8
  %41 = getelementptr inbounds i8, ptr %40, i32 1
  store ptr %41, ptr %5, align 8
  br label %27

42:                                               ; preds = %37
  %43 = load ptr, ptr %5, align 8
  %44 = call i32 @atoi(ptr noundef %43) #8
  store i32 %44, ptr %6, align 4
  %45 = load i32, ptr %6, align 4
  %46 = icmp ne i32 %45, 0
  br i1 %46, label %47, label %62

47:                                               ; preds = %42
  %48 = getelementptr inbounds [1024 x i8], ptr %3, i64 0, i64 0
  %49 = load i32, ptr %6, align 4
  %50 = call i32 (ptr, i64, ptr, ...) @snprintf(ptr noundef %48, i64 noundef 1024, ptr noundef @.str.2, i32 noundef %49) #7
  %51 = getelementptr inbounds [1024 x i8], ptr %3, i64 0, i64 0
  %52 = getelementptr inbounds [1024 x i8], ptr %7, i64 0, i64 0
  %53 = call i64 @readlink(ptr noundef %51, ptr noundef %52, i64 noundef 1023) #7
  %54 = icmp sgt i64 %53, 0
  br i1 %54, label %55, label %61

55:                                               ; preds = %47
  %56 = getelementptr inbounds [1024 x i8], ptr %7, i64 0, i64 0
  %57 = call ptr @strstr(ptr noundef %56, ptr noundef @.str.3) #8
  %58 = icmp ne ptr %57, null
  br i1 %58, label %59, label %60

59:                                               ; preds = %55
  store i8 1, ptr %1, align 1
  br label %60

60:                                               ; preds = %59, %55
  br label %61

61:                                               ; preds = %60, %47
  br label %62

62:                                               ; preds = %61, %42
  br label %63

63:                                               ; preds = %62, %17
  br label %64

64:                                               ; preds = %63, %11
  %65 = load i32, ptr %2, align 4
  %66 = call i32 @close(i32 noundef %65)
  br label %67

67:                                               ; preds = %64, %0
  %68 = load i8, ptr %1, align 1
  %69 = trunc i8 %68 to i1
  ret i1 %69
}