; Function Attrs: nounwind uwtable
define hidden zeroext i1 @ir_gdb_present() local_unnamed_addr #0 {
  %1 = alloca [1024 x i8], align 16
  %2 = alloca [1024 x i8], align 16
  %3 = tail call i32 (ptr, i32, ...) @open(ptr noundef nonnull @.str, i32 noundef 0) #10
  %4 = icmp sgt i32 %3, 0
  br i1 %4, label %5, label %26

5:                                                ; preds = %0
  %6 = call i64 @read(i32 noundef %3, ptr noundef nonnull %1, i64 noundef 1023) #10
  %7 = icmp sgt i64 %6, 0
  br i1 %7, label %8, label %24

8:                                                ; preds = %5
  %9 = getelementptr inbounds [1024 x i8], ptr %1, i64 0, i64 %6
  store i8 0, ptr %9, align 1
  %10 = call ptr @strstr(ptr noundef nonnull dereferenceable(1) %1, ptr noundef nonnull dereferenceable(1) @.str.1) #11
  %.not = icmp eq ptr %10, null
  br i1 %.not, label %24, label %11

11:                                               ; preds = %8
  %12 = getelementptr inbounds i8, ptr %10, i64 10
  br label %13

13:                                               ; preds = %.critedge, %11
  %.013 = phi ptr [ %12, %11 ], [ %15, %.critedge ]
  %14 = load i8, ptr %.013, align 1
  switch i8 %14, label %16 [
    i8 32, label %.critedge
    i8 9, label %.critedge
  ]

.critedge:                                        ; preds = %13, %13
  %15 = getelementptr inbounds i8, ptr %.013, i64 1
  br label %13

16:                                               ; preds = %13
  %17 = call i32 @atoi(ptr nocapture noundef nonnull %.013) #11
  %.not19 = icmp eq i32 %17, 0
  br i1 %.not19, label %24, label %18

18:                                               ; preds = %16
  %19 = call i32 (ptr, i64, ptr, ...) @snprintf(ptr noundef nonnull dereferenceable(1) %1, i64 noundef 1024, ptr noundef nonnull @.str.2, i32 noundef %17) #10
  %20 = call i64 @readlink(ptr noundef nonnull %1, ptr noundef nonnull %2, i64 noundef 1023) #10
  %21 = icmp sgt i64 %20, 0
  br i1 %21, label %22, label %24

22:                                               ; preds = %18
  %23 = call ptr @strstr(ptr noundef nonnull dereferenceable(1) %2, ptr noundef nonnull dereferenceable(1) @.str.3) #11
  %.not20 = icmp ne ptr %23, null
  br label %24

24:                                               ; preds = %22, %8, %18, %16, %5
  %.0 = phi i1 [ false, %18 ], [ false, %16 ], [ false, %8 ], [ false, %5 ], [ %.not20, %22 ]
  %25 = call i32 @close(i32 noundef %3) #10
  br label %26

26:                                               ; preds = %24, %0
  %.1 = phi i1 [ %.0, %24 ], [ false, %0 ]
  ret i1 %.1
}